target datalayout = "e-m:e-p270:32:32-p271:32:32-p272:64:64-i64:64-i128:128-f80:128-n8:16:32:64-S128"
target triple = "x86_64-pc-linux-gnu"

%struct.H5O_shared_t = type { i32, ptr, i32, %union.anon }
%union.anon = type { %struct.H5O_mesg_loc_t }
%struct.H5O_mesg_loc_t = type { i32, i64 }
%struct.H5S_extent_t = type { %struct.H5O_shared_t, i32, i32, i64, i32, ptr, ptr }

@.str.1 = private unnamed_addr constant [103 x i8] c"generated/home/dtcxzyw/WorkSpace/Projects/compilers/llvm-opt-benchmark/bench/hdf5/hdf5/src/H5Oshared.h\00", align 1
@H5E_OHDR_g = external global i64, align 8
@H5E_WRITEERROR_g = external global i64, align 8
@__func__.H5O__sdspace_shared_debug = private unnamed_addr constant [26 x i8] c"H5O__sdspace_shared_debug\00", align 1
@.str.21 = private unnamed_addr constant [38 x i8] c"unable to display shared message info\00", align 1
@.str.22 = private unnamed_addr constant [38 x i8] c"unable to display native message info\00", align 1
@.str.23 = private unnamed_addr constant [13 x i8] c"%*s%-*s %lu\0A\00", align 1
@.str.24 = private unnamed_addr constant [1 x i8] zeroinitializer, align 1
@.str.25 = private unnamed_addr constant [6 x i8] c"Rank:\00", align 1
@.str.26 = private unnamed_addr constant [10 x i8] c"%*s%-*s {\00", align 1
@.str.27 = private unnamed_addr constant [10 x i8] c"Dim Size:\00", align 1
@.str.28 = private unnamed_addr constant [6 x i8] c"%s%lu\00", align 1
@.str.29 = private unnamed_addr constant [3 x i8] c", \00", align 1
@.str.30 = private unnamed_addr constant [3 x i8] c"}\0A\00", align 1
@.str.31 = private unnamed_addr constant [9 x i8] c"%*s%-*s \00", align 1
@.str.32 = private unnamed_addr constant [9 x i8] c"Dim Max:\00", align 1
@.str.33 = private unnamed_addr constant [2 x i8] c"{\00", align 1
@.str.34 = private unnamed_addr constant [8 x i8] c"%sUNLIM\00", align 1
@.str.35 = private unnamed_addr constant [10 x i8] c"CONSTANT\0A\00", align 1

; Function Attrs: nounwind uwtable
define internal i32 @H5O__sdspace_debug(ptr noundef %0, ptr noundef %1, ptr noundef %2, i32 noundef %3, i32 noundef %4) #0 {
  %6 = alloca ptr, align 8
  %7 = alloca ptr, align 8
  %8 = alloca ptr, align 8
  %9 = alloca i32, align 4
  %10 = alloca i32, align 4
  %11 = alloca ptr, align 8
  %12 = alloca i32, align 4
  store ptr %0, ptr %6, align 8
  store ptr %1, ptr %7, align 8
  store ptr %2, ptr %8, align 8
  store i32 %3, ptr %9, align 4
  store i32 %4, ptr %10, align 4
  %13 = load ptr, ptr %7, align 8
  store ptr %13, ptr %11, align 8
  %14 = load ptr, ptr %8, align 8
  %15 = load i32, ptr %9, align 4
  %16 = load i32, ptr %10, align 4
  %17 = load ptr, ptr %11, align 8
  %18 = getelementptr inbounds %struct.H5S_extent_t, ptr %17, i32 0, i32 4
  %19 = load i32, ptr %18, align 8
  %20 = zext i32 %19 to i64
  %21 = call i32 (ptr, ptr, ...) @fprintf(ptr noundef %14, ptr noundef @.str.23, i32 noundef %15, ptr noundef @.str.24, i32 noundef %16, ptr noundef @.str.25, i64 noundef %20) #4
  %22 = load ptr, ptr %11, align 8
  %23 = getelementptr inbounds %struct.H5S_extent_t, ptr %22, i32 0, i32 4
  %24 = load i32, ptr %23, align 8
  %25 = icmp ugt i32 %24, 0
  br i1 %25, label %26, label %112

26:                                               ; preds = %5
  %27 = load ptr, ptr %8, align 8
  %28 = load i32, ptr %9, align 4
  %29 = load i32, ptr %10, align 4
  %30 = call i32 (ptr, ptr, ...) @fprintf(ptr noundef %27, ptr noundef @.str.26, i32 noundef %28, ptr noundef @.str.24, i32 noundef %29, ptr noundef @.str.27) #4
  store i32 0, ptr %12, align 4
  br label %31

31:                                               ; preds = %50, %26
  %32 = load i32, ptr %12, align 4
  %33 = load ptr, ptr %11, align 8
  %34 = getelementptr inbounds %struct.H5S_extent_t, ptr %33, i32 0, i32 4
  %35 = load i32, ptr %34, align 8
  %36 = icmp ult i32 %32, %35
  br i1 %36, label %37, label %53

37:                                               ; preds = %31
  %38 = load ptr, ptr %8, align 8
  %39 = load i32, ptr %12, align 4
  %40 = icmp ne i32 %39, 0
  %41 = select i1 %40, ptr @.str.29, ptr @.str.24
  %42 = load ptr, ptr %11, align 8
  %43 = getelementptr inbounds %struct.H5S_extent_t, ptr %42, i32 0, i32 5
  %44 = load ptr, ptr %43, align 8
  %45 = load i32, ptr %12, align 4
  %46 = zext i32 %45 to i64
  %47 = getelementptr inbounds i64, ptr %44, i64 %46
  %48 = load i64, ptr %47, align 8
  %49 = call i32 (ptr, ptr, ...) @fprintf(ptr noundef %38, ptr noundef @.str.28, ptr noundef %41, i64 noundef %48) #4
  br label %50

50:                                               ; preds = %37
  %51 = load i32, ptr %12, align 4
  %52 = add i32 %51, 1
  store i32 %52, ptr %12, align 4
  br label %31

53:                                               ; preds = %31
  %54 = load ptr, ptr %8, align 8
  %55 = call i32 (ptr, ptr, ...) @fprintf(ptr noundef %54, ptr noundef @.str.30) #4
  %56 = load ptr, ptr %8, align 8
  %57 = load i32, ptr %9, align 4
  %58 = load i32, ptr %10, align 4
  %59 = call i32 (ptr, ptr, ...) @fprintf(ptr noundef %56, ptr noundef @.str.31, i32 noundef %57, ptr noundef @.str.24, i32 noundef %58, ptr noundef @.str.32) #4
  %60 = load ptr, ptr %11, align 8
  %61 = getelementptr inbounds %struct.H5S_extent_t, ptr %60, i32 0, i32 6
  %62 = load ptr, ptr %61, align 8
  %63 = icmp ne ptr %62, null
  br i1 %63, label %64, label %108

64:                                               ; preds = %53
  %65 = load ptr, ptr %8, align 8
  %66 = call i32 (ptr, ptr, ...) @fprintf(ptr noundef %65, ptr noundef @.str.33) #4
  store i32 0, ptr %12, align 4
  br label %67

67:                                               ; preds = %102, %64
  %68 = load i32, ptr %12, align 4
  %69 = load ptr, ptr %11, align 8
  %70 = getelementptr inbounds %struct.H5S_extent_t, ptr %69, i32 0, i32 4
  %71 = load i32, ptr %70, align 8
  %72 = icmp ult i32 %68, %71
  br i1 %72, label %73, label %105

73:                                               ; preds = %67
  %74 = load ptr, ptr %11, align 8
  %75 = getelementptr inbounds %struct.H5S_extent_t, ptr %74, i32 0, i32 6
  %76 = load ptr, ptr %75, align 8
  %77 = load i32, ptr %12, align 4
  %78 = zext i32 %77 to i64
  %79 = getelementptr inbounds i64, ptr %76, i64 %78
  %80 = load i64, ptr %79, align 8
  %81 = icmp eq i64 -1, %80
  br i1 %81, label %82, label %88

82:                                               ; preds = %73
  %83 = load ptr, ptr %8, align 8
  %84 = load i32, ptr %12, align 4
  %85 = icmp ne i32 %84, 0
  %86 = select i1 %85, ptr @.str.29, ptr @.str.24
  %87 = call i32 (ptr, ptr, ...) @fprintf(ptr noundef %83, ptr noundef @.str.34, ptr noundef %86) #4
  br label %101

88:                                               ; preds = %73
  %89 = load ptr, ptr %8, align 8
  %90 = load i32, ptr %12, align 4
  %91 = icmp ne i32 %90, 0
  %92 = select i1 %91, ptr @.str.29, ptr @.str.24
  %93 = load ptr, ptr %11, align 8
  %94 = getelementptr inbounds %struct.H5S_extent_t, ptr %93, i32 0, i32 6
  %95 = load ptr, ptr %94, align 8
  %96 = load i32, ptr %12, align 4
  %97 = zext i32 %96 to i64
  %98 = getelementptr inbounds i64, ptr %95, i64 %97
  %99 = load i64, ptr %98, align 8
  %100 = call i32 (ptr, ptr, ...) @fprintf(ptr noundef %89, ptr noundef @.str.28, ptr noundef %92, i64 noundef %99) #4
  br label %101

101:                                              ; preds = %88, %82
  br label %102

102:                                              ; preds = %101
  %103 = load i32, ptr %12, align 4
  %104 = add i32 %103, 1
  store i32 %104, ptr %12, align 4
  br label %67

105:                                              ; preds = %67
  %106 = load ptr, ptr %8, align 8
  %107 = call i32 (ptr, ptr, ...) @fprintf(ptr noundef %106, ptr noundef @.str.30) #4
  br label %111

108:                                              ; preds = %53
  %109 = load ptr, ptr %8, align 8
  %110 = call i32 (ptr, ptr, ...) @fprintf(ptr noundef %109, ptr noundef @.str.35) #4
  br label %111

111:                                              ; preds = %108, %105
  br label %112

112:                                              ; preds = %111, %5
  ret i32 0
}

; Function Attrs: nounwind uwtable
define internal i32 @H5O__sdspace_shared_debug(ptr noundef %0, ptr noundef %1, ptr noundef %2, i32 noundef %3, i32 noundef %4) #0 {
  %6 = alloca ptr, align 8
  %7 = alloca ptr, align 8
  %8 = alloca ptr, align 8
  %9 = alloca i32, align 4
  %10 = alloca i32, align 4
  %11 = alloca ptr, align 8
  %12 = alloca i32, align 4
  %13 = alloca i8, align 1
  store ptr %0, ptr %6, align 8
  store ptr %1, ptr %7, align 8
  store ptr %2, ptr %8, align 8
  store i32 %3, ptr %9, align 4
  store i32 %4, ptr %10, align 4
  %14 = load ptr, ptr %7, align 8
  store ptr %14, ptr %11, align 8
  store i32 0, ptr %12, align 4
  store i8 0, ptr %13, align 1
  %15 = load ptr, ptr %11, align 8
  %16 = getelementptr inbounds %struct.H5O_shared_t, ptr %15, i32 0, i32 0
  %17 = load i32, ptr %16, align 8
  %18 = icmp eq i32 %17, 1
  br i1 %18, label %24, label %19

19:                                               ; preds = %5
  %20 = load ptr, ptr %11, align 8
  %21 = getelementptr inbounds %struct.H5O_shared_t, ptr %20, i32 0, i32 0
  %22 = load i32, ptr %21, align 8
  %23 = icmp eq i32 %22, 2
  br i1 %23, label %24, label %25

24:                                               ; preds = %19, %5
  br i1 true, label %26, label %49

25:                                               ; preds = %19
  br i1 false, label %26, label %49

26:                                               ; preds = %25, %24
  %27 = load ptr, ptr %11, align 8
  %28 = load ptr, ptr %8, align 8
  %29 = load i32, ptr %9, align 4
  %30 = load i32, ptr %10, align 4
  %31 = call i32 @H5O__shared_debug(ptr noundef %27, ptr noundef %28, i32 noundef %29, i32 noundef %30)
  %32 = icmp slt i32 %31, 0
  br i1 %32, label %33, label %48

33:                                               ; preds = %26
  br label %34

34:                                               ; preds = %33
  br label %35

35:                                               ; preds = %34
  br label %36

36:                                               ; preds = %35
  %37 = load i64, ptr @H5E_OHDR_g, align 8
  %38 = load i64, ptr @H5E_WRITEERROR_g, align 8
  %39 = call i32 (ptr, ptr, i32, i64, i64, ptr, ...) @H5E_printf_stack(ptr noundef @.str.1, ptr noundef @__func__.H5O__sdspace_shared_debug, i32 noundef 428, i64 noundef %37, i64 noundef %38, ptr noundef @.str.21)
  br label %40

40:                                               ; preds = %36
  store i8 1, ptr %13, align 1
  %41 = load i8, ptr %13, align 1
  %42 = trunc i8 %41 to i1
  %43 = zext i1 %42 to i8
  store i8 %43, ptr %13, align 1
  br label %44

44:                                               ; preds = %40
  br label %45

45:                                               ; preds = %44
  store i32 -1, ptr %12, align 4
  br label %73

46:                                               ; No predecessors!
  br label %47

47:                                               ; preds = %46
  br label %48

48:                                               ; preds = %47, %26
  br label %49

49:                                               ; preds = %48, %25, %24
  %50 = load ptr, ptr %6, align 8
  %51 = load ptr, ptr %7, align 8
  %52 = load ptr, ptr %8, align 8
  %53 = load i32, ptr %9, align 4
  %54 = load i32, ptr %10, align 4
  %55 = call i32 @H5O__sdspace_debug(ptr noundef %50, ptr noundef %51, ptr noundef %52, i32 noundef %53, i32 noundef %54)
  %56 = icmp slt i32 %55, 0
  br i1 %56, label %57, label %72

57:                                               ; preds = %49
  br label %58

58:                                               ; preds = %57
  br label %59

59:                                               ; preds = %58
  br label %60

60:                                               ; preds = %59
  %61 = load i64, ptr @H5E_OHDR_g, align 8
  %62 = load i64, ptr @H5E_WRITEERROR_g, align 8
  %63 = call i32 (ptr, ptr, i32, i64, i64, ptr, ...) @H5E_printf_stack(ptr noundef @.str.1, ptr noundef @__func__.H5O__sdspace_shared_debug, i32 noundef 433, i64 noundef %61, i64 noundef %62, ptr noundef @.str.22)
  br label %64

64:                                               ; preds = %60
  store i8 1, ptr %13, align 1
  %65 = load i8, ptr %13, align 1
  %66 = trunc i8 %65 to i1
  %67 = zext i1 %66 to i8
  store i8 %67, ptr %13, align 1
  br label %68

68:                                               ; preds = %64
  br label %69

69:                                               ; preds = %68
  store i32 -1, ptr %12, align 4
  br label %73

70:                                               ; No predecessors!
  br label %71

71:                                               ; preds = %70
  br label %72

72:                                               ; preds = %71, %49
  br label %73

73:                                               ; preds = %72, %69, %45
  %74 = load i32, ptr %12, align 4
  ret i32 %74
}