; Function Attrs: nounwind uwtable
define internal range(i32 -1, 1) i32 @H5O__sdspace_shared_debug(ptr nocapture readnone %0, ptr noundef %1, ptr noundef %2, i32 noundef %3, i32 noundef %4) #0 {
  %6 = load i32, ptr %1, align 8
  %.off = add i32 %6, -1
  %switch = icmp ult i32 %.off, 2
  br i1 %switch, label %7, label %14

7:                                                ; preds = %5
  %8 = tail call i32 @H5O__shared_debug(ptr noundef nonnull %1, ptr noundef %2, i32 noundef %3, i32 noundef %4) #5
  %9 = icmp slt i32 %8, 0
  br i1 %9, label %10, label %14

10:                                               ; preds = %7
  %11 = load i64, ptr @H5E_OHDR_g, align 8
  %12 = load i64, ptr @H5E_WRITEERROR_g, align 8
  %13 = tail call i32 (ptr, ptr, i32, i64, i64, ptr, ...) @H5E_printf_stack(ptr noundef nonnull @.str.1, ptr noundef nonnull @__func__.H5O__sdspace_shared_debug, i32 noundef 428, i64 noundef %11, i64 noundef %12, ptr noundef nonnull @.str.21) #5
  br label %H5O__sdspace_debug.exit

14:                                               ; preds = %5, %7
  %15 = getelementptr inbounds i8, ptr %1, i64 56
  %16 = load i32, ptr %15, align 8
  %17 = zext i32 %16 to i64
  %18 = tail call i32 (ptr, ptr, ...) @fprintf(ptr noundef %2, ptr noundef nonnull @.str.23, i32 noundef %3, ptr noundef nonnull @.str.24, i32 noundef %4, ptr noundef nonnull @.str.25, i64 noundef %17) #5
  %19 = load i32, ptr %15, align 8
  %.not.i = icmp eq i32 %19, 0
  br i1 %.not.i, label %H5O__sdspace_debug.exit, label %20

20:                                               ; preds = %14
  %21 = tail call i32 (ptr, ptr, ...) @fprintf(ptr noundef %2, ptr noundef nonnull @.str.26, i32 noundef %3, ptr noundef nonnull @.str.24, i32 noundef %4, ptr noundef nonnull @.str.27) #5
  %22 = load i32, ptr %15, align 8
  %.not6.i = icmp eq i32 %22, 0
  br i1 %.not6.i, label %._crit_edge.i, label %.lr.ph.i

.lr.ph.i:                                         ; preds = %20
  %23 = getelementptr inbounds i8, ptr %1, i64 64
  br label %24

24:                                               ; preds = %24, %.lr.ph.i
  %indvars.iv.i = phi i64 [ 0, %.lr.ph.i ], [ %indvars.iv.next.i, %24 ]
  %.not38.i = icmp eq i64 %indvars.iv.i, 0
  %25 = select i1 %.not38.i, ptr @.str.24, ptr @.str.29
  %26 = load ptr, ptr %23, align 8
  %27 = getelementptr inbounds i64, ptr %26, i64 %indvars.iv.i
  %28 = load i64, ptr %27, align 8
  %29 = tail call i32 (ptr, ptr, ...) @fprintf(ptr noundef %2, ptr noundef nonnull @.str.28, ptr noundef nonnull %25, i64 noundef %28) #5
  %indvars.iv.next.i = add nuw nsw i64 %indvars.iv.i, 1
  %30 = load i32, ptr %15, align 8
  %31 = zext i32 %30 to i64
  %32 = icmp ult i64 %indvars.iv.next.i, %31
  br i1 %32, label %24, label %._crit_edge.i

._crit_edge.i:                                    ; preds = %24, %20
  %33 = tail call i64 @fwrite(ptr nonnull @.str.30, i64 2, i64 1, ptr %2)
  %34 = tail call i32 (ptr, ptr, ...) @fprintf(ptr noundef %2, ptr noundef nonnull @.str.31, i32 noundef %3, ptr noundef nonnull @.str.24, i32 noundef %4, ptr noundef nonnull @.str.32) #5
  %35 = getelementptr inbounds i8, ptr %1, i64 72
  %36 = load ptr, ptr %35, align 8
  %.not35.i = icmp eq ptr %36, null
  br i1 %.not35.i, label %53, label %37

37:                                               ; preds = %._crit_edge.i
  %fputc.i = tail call i32 @fputc(i32 123, ptr %2)
  %38 = load i32, ptr %15, align 8
  %.not7.i = icmp eq i32 %38, 0
  br i1 %.not7.i, label %._crit_edge5.i, label %.lr.ph4.i

.lr.ph4.i:                                        ; preds = %37, %48
  %indvars.iv9.i = phi i64 [ %indvars.iv.next10.i, %48 ], [ 0, %37 ]
  %39 = load ptr, ptr %35, align 8
  %40 = getelementptr inbounds i64, ptr %39, i64 %indvars.iv9.i
  %41 = load i64, ptr %40, align 8
  %42 = icmp eq i64 %41, -1
  %.not37.i = icmp eq i64 %indvars.iv9.i, 0
  %43 = select i1 %.not37.i, ptr @.str.24, ptr @.str.29
  br i1 %42, label %44, label %46

44:                                               ; preds = %.lr.ph4.i
  %45 = tail call i32 (ptr, ptr, ...) @fprintf(ptr noundef %2, ptr noundef nonnull @.str.34, ptr noundef nonnull %43) #5
  br label %48

46:                                               ; preds = %.lr.ph4.i
  %47 = tail call i32 (ptr, ptr, ...) @fprintf(ptr noundef %2, ptr noundef nonnull @.str.28, ptr noundef nonnull %43, i64 noundef %41) #5
  br label %48

48:                                               ; preds = %46, %44
  %indvars.iv.next10.i = add nuw nsw i64 %indvars.iv9.i, 1
  %49 = load i32, ptr %15, align 8
  %50 = zext i32 %49 to i64
  %51 = icmp ult i64 %indvars.iv.next10.i, %50
  br i1 %51, label %.lr.ph4.i, label %._crit_edge5.i

._crit_edge5.i:                                   ; preds = %48, %37
  %52 = tail call i64 @fwrite(ptr nonnull @.str.30, i64 2, i64 1, ptr %2)
  br label %H5O__sdspace_debug.exit

53:                                               ; preds = %._crit_edge.i
  %54 = tail call i64 @fwrite(ptr nonnull @.str.35, i64 9, i64 1, ptr %2)
  br label %H5O__sdspace_debug.exit

H5O__sdspace_debug.exit:                          ; preds = %53, %._crit_edge5.i, %14, %10
  %.0 = phi i32 [ -1, %10 ], [ 0, %14 ], [ 0, %._crit_edge5.i ], [ 0, %53 ]
  ret i32 %.0
}